00000000  CC                int3
00000001  4883EC50          sub rsp,byte +0x50
00000005  48895C2408        mov [rsp+0x8],rbx
0000000A  48896C2410        mov [rsp+0x10],rbp
0000000F  4C89642418        mov [rsp+0x18],r12
00000014  4C896C2420        mov [rsp+0x20],r13
00000019  4C89742428        mov [rsp+0x28],r14
0000001E  4C897C2430        mov [rsp+0x30],r15
00000023  0F57C0            xorps xmm0,xmm0
00000026  0F57C9            xorps xmm1,xmm1
00000029  0F57D2            xorps xmm2,xmm2
0000002C  0F57DB            xorps xmm3,xmm3
0000002F  0F57E4            xorps xmm4,xmm4
00000032  0F57ED            xorps xmm5,xmm5
00000035  0F57F6            xorps xmm6,xmm6
00000038  0F57FF            xorps xmm7,xmm7
0000003B  48B8D0EC481FFD7F  mov rax,0x7ffd1f48ecd0
00000045  488920            mov [rax],rsp
00000048  4881EC88000000    sub rsp,0x88
0000004F  F20F100425000002  movsd xmm0,qword [0x41020000]
00000058  6850000241        push qword 0x41020050
0000005D  FF242598000241    jmp [0x41020098]
00000064  4881ECC8000000    sub rsp,0xc8
0000006B  F20F11442408      movsd qword [rsp+0x8],xmm0
00000071  48BFD0EC481FFD7F  mov rdi,0x7ffd1f48ecd0
0000007B  48BEE01EF7DA837F  mov rsi,0x7f83daf71ee0
00000085  48B85041AA786755  mov rax,0x556778aa4150
0000008F  FFD0              call rax
00000091  4889042598000241  mov [0x41020098],rax
00000099  F20F10442408      movsd xmm0,qword [rsp+0x8]
0000009F  4881C4C8000000    add rsp,0xc8
000000A6  FF242598000241    jmp [0x41020098]
000000AD  4881ECC0000000    sub rsp,0xc0
000000B4  4889442408        mov [rsp+0x8],rax
000000B9  48BFD0EC481FFD7F  mov rdi,0x7ffd1f48ecd0
000000C3  48BEE01DF7DA837F  mov rsi,0x7f83daf71de0
000000CD  48B85041AA786755  mov rax,0x556778aa4150
000000D7  FFD0              call rax
000000D9  4889042548000241  mov [0x41020048],rax
000000E1  488B442408        mov rax,[rsp+0x8]
000000E6  4881C4C0000000    add rsp,0xc0
000000ED  FF242548000241    jmp [0x41020048]
000000F4  4881ECC0000000    sub rsp,0xc0
000000FB  4889442408        mov [rsp+0x8],rax
00000100  48BFD0EC481FFD7F  mov rdi,0x7ffd1f48ecd0
0000010A  48BE001EF7DA837F  mov rsi,0x7f83daf71e00
00000114  48B85041AA786755  mov rax,0x556778aa4150
0000011E  FFD0              call rax
00000120  4889042540000241  mov [0x41020040],rax
00000128  488B442408        mov rax,[rsp+0x8]
0000012D  4881C4C0000000    add rsp,0xc0
00000134  FF242540000241    jmp [0x41020040]
0000013B  4881ECC0000000    sub rsp,0xc0
00000142  4889442408        mov [rsp+0x8],rax
00000147  48BFD0EC481FFD7F  mov rdi,0x7ffd1f48ecd0
00000151  48BE201EF7DA837F  mov rsi,0x7f83daf71e20
0000015B  48B85041AA786755  mov rax,0x556778aa4150
00000165  FFD0              call rax
00000167  4889042538000241  mov [0x41020038],rax
0000016F  488B442408        mov rax,[rsp+0x8]
00000174  4881C4C0000000    add rsp,0xc0
0000017B  FF242538000241    jmp [0x41020038]
00000182  4881ECC0000000    sub rsp,0xc0
00000189  4889442408        mov [rsp+0x8],rax
0000018E  48BFD0EC481FFD7F  mov rdi,0x7ffd1f48ecd0
00000198  48BE401EF7DA837F  mov rsi,0x7f83daf71e40
000001A2  48B85041AA786755  mov rax,0x556778aa4150
000001AC  FFD0              call rax
000001AE  4889042530000241  mov [0x41020030],rax
000001B6  488B442408        mov rax,[rsp+0x8]
000001BB  4881C4C0000000    add rsp,0xc0
000001C2  FF242530000241    jmp [0x41020030]
000001C9  4881ECC0000000    sub rsp,0xc0
000001D0  F20F11442408      movsd qword [rsp+0x8],xmm0
000001D6  48BFD0EC481FFD7F  mov rdi,0x7ffd1f48ecd0
000001E0  48BE601EF7DA837F  mov rsi,0x7f83daf71e60
000001EA  48B85041AA786755  mov rax,0x556778aa4150
000001F4  FFD0              call rax
000001F6  4889042528000241  mov [0x41020028],rax
000001FE  F20F10442408      movsd xmm0,qword [rsp+0x8]
00000204  4881C4C0000000    add rsp,0xc0
0000020B  FF242528000241    jmp [0x41020028]
00000212  4881ECC0000000    sub rsp,0xc0
00000219  4889442408        mov [rsp+0x8],rax
0000021E  48BFD0EC481FFD7F  mov rdi,0x7ffd1f48ecd0
00000228  48BE801EF7DA837F  mov rsi,0x7f83daf71e80
00000232  48B85041AA786755  mov rax,0x556778aa4150
0000023C  FFD0              call rax
0000023E  4889042520000241  mov [0x41020020],rax
00000246  488B442408        mov rax,[rsp+0x8]
0000024B  4881C4C0000000    add rsp,0xc0
00000252  FF242520000241    jmp [0x41020020]
00000259  4881ECC0000000    sub rsp,0xc0
00000260  4889442408        mov [rsp+0x8],rax
00000265  48BFD0EC481FFD7F  mov rdi,0x7ffd1f48ecd0
0000026F  48BEA01EF7DA837F  mov rsi,0x7f83daf71ea0
00000279  48B85041AA786755  mov rax,0x556778aa4150
00000283  FFD0              call rax
00000285  4889042518000241  mov [0x41020018],rax
0000028D  488B442408        mov rax,[rsp+0x8]
00000292  4881C4C0000000    add rsp,0xc0
00000299  FF242518000241    jmp [0x41020018]
000002A0  4881ECC0000000    sub rsp,0xc0
000002A7  4889442408        mov [rsp+0x8],rax
000002AC  48BFD0EC481FFD7F  mov rdi,0x7ffd1f48ecd0
000002B6  48BEC01EF7DA837F  mov rsi,0x7f83daf71ec0
000002C0  48B85041AA786755  mov rax,0x556778aa4150
000002CA  FFD0              call rax
000002CC  4889042510000241  mov [0x41020010],rax
000002D4  488B442408        mov rax,[rsp+0x8]
000002D9  4881C4C0000000    add rsp,0xc0
000002E0  FF242510000241    jmp [0x41020010]
000002E7  CC                int3
000002E8  4881EC88000000    sub rsp,0x88
000002EF  F20F10F0          movsd xmm6,xmm0
000002F3  F20F103C25880302  movsd xmm7,qword [0x41020388]
000002FC  F20F102C25900302  movsd xmm5,qword [0x41020390]
00000305  660F2EEE          ucomisd xmm5,xmm6
00000309  720F              jc 0x31a
0000030B  F20F10C7          movsd xmm0,xmm7
0000030F  4881C488000000    add rsp,0x88
00000316  5A                pop rdx
00000317  FF6220            jmp [rdx+0x20]
0000031A  F20F116C2408      movsd qword [rsp+0x8],xmm5
00000320  F20F11742410      movsd qword [rsp+0x10],xmm6
00000326  F20F117C2418      movsd qword [rsp+0x18],xmm7
0000032C  F20F10C5          movsd xmm0,xmm5
00000330  68E0030241        push qword 0x410203e0
00000335  FF242528040241    jmp [0x41020428]
0000033C  F20F106C2408      movsd xmm5,qword [rsp+0x8]
00000342  F20F10742410      movsd xmm6,qword [rsp+0x10]
00000348  F20F107C2418      movsd xmm7,qword [rsp+0x18]
0000034E  FF2425A0030241    jmp [0x410203a0]
00000355  F20F106C2408      movsd xmm5,qword [rsp+0x8]
0000035B  F20F10742410      movsd xmm6,qword [rsp+0x10]
00000361  F20F107C2418      movsd xmm7,qword [rsp+0x18]
00000367  FF2425A8030241    jmp [0x410203a8]
0000036E  F20F106C2408      movsd xmm5,qword [rsp+0x8]
00000374  F20F10742410      movsd xmm6,qword [rsp+0x10]
0000037A  F20F107C2418      movsd xmm7,qword [rsp+0x18]
00000380  FF2425B0030241    jmp [0x410203b0]
00000387  F20F106C2408      movsd xmm5,qword [rsp+0x8]
0000038D  F20F10742410      movsd xmm6,qword [rsp+0x10]
00000393  F20F107C2418      movsd xmm7,qword [rsp+0x18]
00000399  FF2425B8030241    jmp [0x410203b8]
000003A0  F20F106C2408      movsd xmm5,qword [rsp+0x8]
000003A6  F20F10742410      movsd xmm6,qword [rsp+0x10]
000003AC  F20F107C2418      movsd xmm7,qword [rsp+0x18]
000003B2  FF2425C0030241    jmp [0x410203c0]
000003B9  F20F106C2408      movsd xmm5,qword [rsp+0x8]
000003BF  F20F10742410      movsd xmm6,qword [rsp+0x10]
000003C5  F20F107C2418      movsd xmm7,qword [rsp+0x18]
000003CB  FF2425C8030241    jmp [0x410203c8]
000003D2  F20F106C2408      movsd xmm5,qword [rsp+0x8]
000003D8  F20F10742410      movsd xmm6,qword [rsp+0x10]
000003DE  F20F107C2418      movsd xmm7,qword [rsp+0x18]
000003E4  FF2425D0030241    jmp [0x410203d0]
000003EB  F20F106C2408      movsd xmm5,qword [rsp+0x8]
000003F1  F20F10742410      movsd xmm6,qword [rsp+0x10]
000003F7  F20F107C2418      movsd xmm7,qword [rsp+0x18]
000003FD  FF2425D8030241    jmp [0x410203d8]
00000404  4881ECC8000000    sub rsp,0xc8
0000040B  F20F11442408      movsd qword [rsp+0x8],xmm0
00000411  F20F116C2410      movsd qword [rsp+0x10],xmm5
00000417  F20F11742418      movsd qword [rsp+0x18],xmm6
0000041D  F20F117C2420      movsd qword [rsp+0x20],xmm7
00000423  48BFD0EC481FFD7F  mov rdi,0x7ffd1f48ecd0
0000042D  48BE801DF7DA837F  mov rsi,0x7f83daf71d80
00000437  48B85041AA786755  mov rax,0x556778aa4150
00000441  FFD0              call rax
00000443  4889042528040241  mov [0x41020428],rax
0000044B  F20F10442408      movsd xmm0,qword [rsp+0x8]
00000451  F20F106C2410      movsd xmm5,qword [rsp+0x10]
00000457  F20F10742418      movsd xmm6,qword [rsp+0x18]
0000045D  F20F107C2420      movsd xmm7,qword [rsp+0x20]
00000463  4881C4C8000000    add rsp,0xc8
0000046A  FF242528040241    jmp [0x41020428]
00000471  4881ECC0000000    sub rsp,0xc0
00000478  4889442408        mov [rsp+0x8],rax
0000047D  F20F116C2410      movsd qword [rsp+0x10],xmm5
00000483  F20F11742418      movsd qword [rsp+0x18],xmm6
00000489  F20F117C2420      movsd qword [rsp+0x20],xmm7
0000048F  48BFD0EC481FFD7F  mov rdi,0x7ffd1f48ecd0
00000499  48BE801CF7DA837F  mov rsi,0x7f83daf71c80
000004A3  48B85041AA786755  mov rax,0x556778aa4150
000004AD  FFD0              call rax
000004AF  48890425D8030241  mov [0x410203d8],rax
000004B7  488B442408        mov rax,[rsp+0x8]
000004BC  F20F106C2410      movsd xmm5,qword [rsp+0x10]
000004C2  F20F10742418      movsd xmm6,qword [rsp+0x18]
000004C8  F20F107C2420      movsd xmm7,qword [rsp+0x20]
000004CE  4881C4C0000000    add rsp,0xc0
000004D5  FF2425D8030241    jmp [0x410203d8]
000004DC  4881ECC0000000    sub rsp,0xc0
000004E3  4889442408        mov [rsp+0x8],rax
000004E8  F20F116C2410      movsd qword [rsp+0x10],xmm5
000004EE  F20F11742418      movsd qword [rsp+0x18],xmm6
000004F4  F20F117C2420      movsd qword [rsp+0x20],xmm7
000004FA  48BFD0EC481FFD7F  mov rdi,0x7ffd1f48ecd0
00000504  48BEA01CF7DA837F  mov rsi,0x7f83daf71ca0
0000050E  48B85041AA786755  mov rax,0x556778aa4150
00000518  FFD0              call rax
0000051A  48890425D0030241  mov [0x410203d0],rax
00000522  488B442408        mov rax,[rsp+0x8]
00000527  F20F106C2410      movsd xmm5,qword [rsp+0x10]
0000052D  F20F10742418      movsd xmm6,qword [rsp+0x18]
00000533  F20F107C2420      movsd xmm7,qword [rsp+0x20]
00000539  4881C4C0000000    add rsp,0xc0
00000540  FF2425D0030241    jmp [0x410203d0]
00000547  4881ECC0000000    sub rsp,0xc0
0000054E  4889442408        mov [rsp+0x8],rax
00000553  F20F116C2410      movsd qword [rsp+0x10],xmm5
00000559  F20F11742418      movsd qword [rsp+0x18],xmm6
0000055F  F20F117C2420      movsd qword [rsp+0x20],xmm7
00000565  48BFD0EC481FFD7F  mov rdi,0x7ffd1f48ecd0
0000056F  48BEC01CF7DA837F  mov rsi,0x7f83daf71cc0
00000579  48B85041AA786755  mov rax,0x556778aa4150
00000583  FFD0              call rax
00000585  48890425C8030241  mov [0x410203c8],rax
0000058D  488B442408        mov rax,[rsp+0x8]
00000592  F20F106C2410      movsd xmm5,qword [rsp+0x10]
00000598  F20F10742418      movsd xmm6,qword [rsp+0x18]
0000059E  F20F107C2420      movsd xmm7,qword [rsp+0x20]
000005A4  4881C4C0000000    add rsp,0xc0
000005AB  FF2425C8030241    jmp [0x410203c8]
000005B2  4881ECC0000000    sub rsp,0xc0
000005B9  4889442408        mov [rsp+0x8],rax
000005BE  F20F116C2410      movsd qword [rsp+0x10],xmm5
000005C4  F20F11742418      movsd qword [rsp+0x18],xmm6
000005CA  F20F117C2420      movsd qword [rsp+0x20],xmm7
000005D0  48BFD0EC481FFD7F  mov rdi,0x7ffd1f48ecd0
000005DA  48BEE01CF7DA837F  mov rsi,0x7f83daf71ce0
000005E4  48B85041AA786755  mov rax,0x556778aa4150
000005EE  FFD0              call rax
000005F0  48890425C0030241  mov [0x410203c0],rax
000005F8  488B442408        mov rax,[rsp+0x8]
000005FD  F20F106C2410      movsd xmm5,qword [rsp+0x10]
00000603  F20F10742418      movsd xmm6,qword [rsp+0x18]
00000609  F20F107C2420      movsd xmm7,qword [rsp+0x20]
0000060F  4881C4C0000000    add rsp,0xc0
00000616  FF2425C0030241    jmp [0x410203c0]
0000061D  4881ECC0000000    sub rsp,0xc0
00000624  F20F11442408      movsd qword [rsp+0x8],xmm0
0000062A  F20F116C2410      movsd qword [rsp+0x10],xmm5
00000630  F20F11742418      movsd qword [rsp+0x18],xmm6
00000636  F20F117C2420      movsd qword [rsp+0x20],xmm7
0000063C  48BFD0EC481FFD7F  mov rdi,0x7ffd1f48ecd0
00000646  48BE001DF7DA837F  mov rsi,0x7f83daf71d00
00000650  48B85041AA786755  mov rax,0x556778aa4150
0000065A  FFD0              call rax
0000065C  48890425B8030241  mov [0x410203b8],rax
00000664  F20F10442408      movsd xmm0,qword [rsp+0x8]
0000066A  F20F106C2410      movsd xmm5,qword [rsp+0x10]
00000670  F20F10742418      movsd xmm6,qword [rsp+0x18]
00000676  F20F107C2420      movsd xmm7,qword [rsp+0x20]
0000067C  4881C4C0000000    add rsp,0xc0
00000683  FF2425B8030241    jmp [0x410203b8]
0000068A  4881ECC0000000    sub rsp,0xc0
00000691  4889442408        mov [rsp+0x8],rax
00000696  F20F116C2410      movsd qword [rsp+0x10],xmm5
0000069C  F20F11742418      movsd qword [rsp+0x18],xmm6
000006A2  F20F117C2420      movsd qword [rsp+0x20],xmm7
000006A8  48BFD0EC481FFD7F  mov rdi,0x7ffd1f48ecd0
000006B2  48BE201DF7DA837F  mov rsi,0x7f83daf71d20
000006BC  48B85041AA786755  mov rax,0x556778aa4150
000006C6  FFD0              call rax
000006C8  48890425B0030241  mov [0x410203b0],rax
000006D0  488B442408        mov rax,[rsp+0x8]
000006D5  F20F106C2410      movsd xmm5,qword [rsp+0x10]
000006DB  F20F10742418      movsd xmm6,qword [rsp+0x18]
000006E1  F20F107C2420      movsd xmm7,qword [rsp+0x20]
000006E7  4881C4C0000000    add rsp,0xc0
000006EE  FF2425B0030241    jmp [0x410203b0]
000006F5  4881ECC0000000    sub rsp,0xc0
000006FC  4889442408        mov [rsp+0x8],rax
00000701  F20F116C2410      movsd qword [rsp+0x10],xmm5
00000707  F20F11742418      movsd qword [rsp+0x18],xmm6
0000070D  F20F117C2420      movsd qword [rsp+0x20],xmm7
00000713  48BFD0EC481FFD7F  mov rdi,0x7ffd1f48ecd0
0000071D  48BE401DF7DA837F  mov rsi,0x7f83daf71d40
00000727  48B85041AA786755  mov rax,0x556778aa4150
00000731  FFD0              call rax
00000733  48890425A8030241  mov [0x410203a8],rax
0000073B  488B442408        mov rax,[rsp+0x8]
00000740  F20F106C2410      movsd xmm5,qword [rsp+0x10]
00000746  F20F10742418      movsd xmm6,qword [rsp+0x18]
0000074C  F20F107C2420      movsd xmm7,qword [rsp+0x20]
00000752  4881C4C0000000    add rsp,0xc0
00000759  FF2425A8030241    jmp [0x410203a8]
00000760  4881ECC0000000    sub rsp,0xc0
00000767  4889442408        mov [rsp+0x8],rax
0000076C  F20F116C2410      movsd qword [rsp+0x10],xmm5
00000772  F20F11742418      movsd qword [rsp+0x18],xmm6
00000778  F20F117C2420      movsd qword [rsp+0x20],xmm7
0000077E  48BFD0EC481FFD7F  mov rdi,0x7ffd1f48ecd0
00000788  48BE601DF7DA837F  mov rsi,0x7f83daf71d60
00000792  48B85041AA786755  mov rax,0x556778aa4150
0000079C  FFD0              call rax
0000079E  48890425A0030241  mov [0x410203a0],rax
000007A6  488B442408        mov rax,[rsp+0x8]
000007AB  F20F106C2410      movsd xmm5,qword [rsp+0x10]
000007B1  F20F10742418      movsd xmm6,qword [rsp+0x18]
000007B7  F20F107C2420      movsd xmm7,qword [rsp+0x20]
000007BD  4881C4C0000000    add rsp,0xc0
000007C4  FF2425A0030241    jmp [0x410203a0]
000007CB  CC                int3
000007CC  4881EC88000000    sub rsp,0x88
000007D3  F20F10F0          movsd xmm6,xmm0
000007D7  F20F103C25180902  movsd xmm7,qword [0x41020918]
000007E0  C5C359EF          vmulsd xmm5,xmm7,xmm7
000007E4  660F2EF5          ucomisd xmm6,xmm5
000007E8  7240              jc 0x82a
000007EA  F20F10C6          movsd xmm0,xmm6
000007EE  C5FB5ECF          vdivsd xmm1,xmm0,xmm7
000007F2  660F3A0BC909      roundsd xmm1,xmm1,byte 0x9
000007F8  F20F59CF          mulsd xmm1,xmm7
000007FC  C5FB5CE9          vsubsd xmm5,xmm0,xmm1
00000800  660F2E2C25200902  ucomisd xmm5,qword [0x41020920]
00000809  740B              jz 0x816
0000080B  F20F583C25280902  addsd xmm7,[0x41020928]
00000814  EBCA              jmp short 0x7e0
00000816  F20F100425300902  movsd xmm0,qword [0x41020930]
0000081F  4881C488000000    add rsp,0x88
00000826  5A                pop rdx
00000827  FF6220            jmp [rdx+0x20]
0000082A  F20F100425380902  movsd xmm0,qword [0x41020938]
00000833  4881C488000000    add rsp,0x88
0000083A  5A                pop rdx
0000083B  FF6220            jmp [rdx+0x20]
0000083E  CC                int3
0000083F  F20F10E0          movsd xmm4,xmm0
00000843  F20F58FC          addsd xmm7,xmm4
00000847  F20F582C25B80902  addsd xmm5,[0x410209b8]
00000850  660F2EEE          ucomisd xmm5,xmm6
00000854  720F              jc 0x865
00000856  F20F10C7          movsd xmm0,xmm7
0000085A  4881C488000000    add rsp,0x88
00000861  5A                pop rdx
00000862  FF6220            jmp [rdx+0x20]
00000865  F20F116C2408      movsd qword [rsp+0x8],xmm5
0000086B  F20F11742410      movsd qword [rsp+0x10],xmm6
00000871  F20F117C2418      movsd qword [rsp+0x18],xmm7
00000877  F20F10C5          movsd xmm0,xmm5
0000087B  68080A0241        push qword 0x41020a08
00000880  FF2425500A0241    jmp [0x41020a50]
00000887  F20F106C2408      movsd xmm5,qword [rsp+0x8]
0000088D  F20F10742410      movsd xmm6,qword [rsp+0x10]
00000893  F20F107C2418      movsd xmm7,qword [rsp+0x18]
00000899  FF2425C8090241    jmp [0x410209c8]
000008A0  F20F106C2408      movsd xmm5,qword [rsp+0x8]
000008A6  F20F10742410      movsd xmm6,qword [rsp+0x10]
000008AC  F20F107C2418      movsd xmm7,qword [rsp+0x18]
000008B2  FF2425D0090241    jmp [0x410209d0]
000008B9  F20F106C2408      movsd xmm5,qword [rsp+0x8]
000008BF  F20F10742410      movsd xmm6,qword [rsp+0x10]
000008C5  F20F107C2418      movsd xmm7,qword [rsp+0x18]
000008CB  FF2425D8090241    jmp [0x410209d8]
000008D2  F20F106C2408      movsd xmm5,qword [rsp+0x8]
000008D8  F20F10742410      movsd xmm6,qword [rsp+0x10]
000008DE  F20F107C2418      movsd xmm7,qword [rsp+0x18]
000008E4  FF2425E0090241    jmp [0x410209e0]
000008EB  F20F106C2408      movsd xmm5,qword [rsp+0x8]
000008F1  F20F10742410      movsd xmm6,qword [rsp+0x10]
000008F7  F20F107C2418      movsd xmm7,qword [rsp+0x18]
000008FD  FF2425E8090241    jmp [0x410209e8]
00000904  F20F106C2408      movsd xmm5,qword [rsp+0x8]
0000090A  F20F10742410      movsd xmm6,qword [rsp+0x10]
00000910  F20F107C2418      movsd xmm7,qword [rsp+0x18]
00000916  FF2425F0090241    jmp [0x410209f0]
0000091D  F20F106C2408      movsd xmm5,qword [rsp+0x8]
00000923  F20F10742410      movsd xmm6,qword [rsp+0x10]
00000929  F20F107C2418      movsd xmm7,qword [rsp+0x18]
0000092F  FF2425F8090241    jmp [0x410209f8]
00000936  F20F106C2408      movsd xmm5,qword [rsp+0x8]
0000093C  F20F10742410      movsd xmm6,qword [rsp+0x10]
00000942  F20F107C2418      movsd xmm7,qword [rsp+0x18]
00000948  FF2425000A0241    jmp [0x41020a00]
0000094F  4881ECC8000000    sub rsp,0xc8
00000956  F20F11442408      movsd qword [rsp+0x8],xmm0
0000095C  F20F116C2410      movsd qword [rsp+0x10],xmm5
00000962  F20F11742418      movsd qword [rsp+0x18],xmm6
00000968  F20F117C2420      movsd qword [rsp+0x20],xmm7
0000096E  48BFD0EC481FFD7F  mov rdi,0x7ffd1f48ecd0
00000978  48BE801DF7DA837F  mov rsi,0x7f83daf71d80
00000982  48B85041AA786755  mov rax,0x556778aa4150
0000098C  FFD0              call rax
0000098E  48890425500A0241  mov [0x41020a50],rax
00000996  F20F10442408      movsd xmm0,qword [rsp+0x8]
0000099C  F20F106C2410      movsd xmm5,qword [rsp+0x10]
000009A2  F20F10742418      movsd xmm6,qword [rsp+0x18]
000009A8  F20F107C2420      movsd xmm7,qword [rsp+0x20]
000009AE  4881C4C8000000    add rsp,0xc8
000009B5  FF2425500A0241    jmp [0x41020a50]
000009BC  4881ECC0000000    sub rsp,0xc0
000009C3  4889442408        mov [rsp+0x8],rax
000009C8  F20F116C2410      movsd qword [rsp+0x10],xmm5
000009CE  F20F11742418      movsd qword [rsp+0x18],xmm6
000009D4  F20F117C2420      movsd qword [rsp+0x20],xmm7
000009DA  48BFD0EC481FFD7F  mov rdi,0x7ffd1f48ecd0
000009E4  48BE801CF7DA837F  mov rsi,0x7f83daf71c80
000009EE  48B85041AA786755  mov rax,0x556778aa4150
000009F8  FFD0              call rax
000009FA  48890425000A0241  mov [0x41020a00],rax
00000A02  488B442408        mov rax,[rsp+0x8]
00000A07  F20F106C2410      movsd xmm5,qword [rsp+0x10]
00000A0D  F20F10742418      movsd xmm6,qword [rsp+0x18]
00000A13  F20F107C2420      movsd xmm7,qword [rsp+0x20]
00000A19  4881C4C0000000    add rsp,0xc0
00000A20  FF2425000A0241    jmp [0x41020a00]
00000A27  4881ECC0000000    sub rsp,0xc0
00000A2E  4889442408        mov [rsp+0x8],rax
00000A33  F20F116C2410      movsd qword [rsp+0x10],xmm5
00000A39  F20F11742418      movsd qword [rsp+0x18],xmm6
00000A3F  F20F117C2420      movsd qword [rsp+0x20],xmm7
00000A45  48BFD0EC481FFD7F  mov rdi,0x7ffd1f48ecd0
00000A4F  48BEA01CF7DA837F  mov rsi,0x7f83daf71ca0
00000A59  48B85041AA786755  mov rax,0x556778aa4150
00000A63  FFD0              call rax
00000A65  48890425F8090241  mov [0x410209f8],rax
00000A6D  488B442408        mov rax,[rsp+0x8]
00000A72  F20F106C2410      movsd xmm5,qword [rsp+0x10]
00000A78  F20F10742418      movsd xmm6,qword [rsp+0x18]
00000A7E  F20F107C2420      movsd xmm7,qword [rsp+0x20]
00000A84  4881C4C0000000    add rsp,0xc0
00000A8B  FF2425F8090241    jmp [0x410209f8]
00000A92  4881ECC0000000    sub rsp,0xc0
00000A99  4889442408        mov [rsp+0x8],rax
00000A9E  F20F116C2410      movsd qword [rsp+0x10],xmm5
00000AA4  F20F11742418      movsd qword [rsp+0x18],xmm6
00000AAA  F20F117C2420      movsd qword [rsp+0x20],xmm7
00000AB0  48BFD0EC481FFD7F  mov rdi,0x7ffd1f48ecd0
00000ABA  48BEC01CF7DA837F  mov rsi,0x7f83daf71cc0
00000AC4  48B85041AA786755  mov rax,0x556778aa4150
00000ACE  FFD0              call rax
00000AD0  48890425F0090241  mov [0x410209f0],rax
00000AD8  488B442408        mov rax,[rsp+0x8]
00000ADD  F20F106C2410      movsd xmm5,qword [rsp+0x10]
00000AE3  F20F10742418      movsd xmm6,qword [rsp+0x18]
00000AE9  F20F107C2420      movsd xmm7,qword [rsp+0x20]
00000AEF  4881C4C0000000    add rsp,0xc0
00000AF6  FF2425F0090241    jmp [0x410209f0]
00000AFD  4881ECC0000000    sub rsp,0xc0
00000B04  4889442408        mov [rsp+0x8],rax
00000B09  F20F116C2410      movsd qword [rsp+0x10],xmm5
00000B0F  F20F11742418      movsd qword [rsp+0x18],xmm6
00000B15  F20F117C2420      movsd qword [rsp+0x20],xmm7
00000B1B  48BFD0EC481FFD7F  mov rdi,0x7ffd1f48ecd0
00000B25  48BEE01CF7DA837F  mov rsi,0x7f83daf71ce0
00000B2F  48B85041AA786755  mov rax,0x556778aa4150
00000B39  FFD0              call rax
00000B3B  48890425E8090241  mov [0x410209e8],rax
00000B43  488B442408        mov rax,[rsp+0x8]
00000B48  F20F106C2410      movsd xmm5,qword [rsp+0x10]
00000B4E  F20F10742418      movsd xmm6,qword [rsp+0x18]
00000B54  F20F107C2420      movsd xmm7,qword [rsp+0x20]
00000B5A  4881C4C0000000    add rsp,0xc0
00000B61  FF2425E8090241    jmp [0x410209e8]
00000B68  4881ECC0000000    sub rsp,0xc0
00000B6F  F20F11442408      movsd qword [rsp+0x8],xmm0
00000B75  F20F116C2410      movsd qword [rsp+0x10],xmm5
00000B7B  F20F11742418      movsd qword [rsp+0x18],xmm6
00000B81  F20F117C2420      movsd qword [rsp+0x20],xmm7
00000B87  48BFD0EC481FFD7F  mov rdi,0x7ffd1f48ecd0
00000B91  48BE001DF7DA837F  mov rsi,0x7f83daf71d00
00000B9B  48B85041AA786755  mov rax,0x556778aa4150
00000BA5  FFD0              call rax
00000BA7  48890425E0090241  mov [0x410209e0],rax
00000BAF  F20F10442408      movsd xmm0,qword [rsp+0x8]
00000BB5  F20F106C2410      movsd xmm5,qword [rsp+0x10]
00000BBB  F20F10742418      movsd xmm6,qword [rsp+0x18]
00000BC1  F20F107C2420      movsd xmm7,qword [rsp+0x20]
00000BC7  4881C4C0000000    add rsp,0xc0
00000BCE  FF2425E0090241    jmp [0x410209e0]
00000BD5  4881ECC0000000    sub rsp,0xc0
00000BDC  4889442408        mov [rsp+0x8],rax
00000BE1  F20F116C2410      movsd qword [rsp+0x10],xmm5
00000BE7  F20F11742418      movsd qword [rsp+0x18],xmm6
00000BED  F20F117C2420      movsd qword [rsp+0x20],xmm7
00000BF3  48BFD0EC481FFD7F  mov rdi,0x7ffd1f48ecd0
00000BFD  48BE201DF7DA837F  mov rsi,0x7f83daf71d20
00000C07  48B85041AA786755  mov rax,0x556778aa4150
00000C11  FFD0              call rax
00000C13  48890425D8090241  mov [0x410209d8],rax
00000C1B  488B442408        mov rax,[rsp+0x8]
00000C20  F20F106C2410      movsd xmm5,qword [rsp+0x10]
00000C26  F20F10742418      movsd xmm6,qword [rsp+0x18]
00000C2C  F20F107C2420      movsd xmm7,qword [rsp+0x20]
00000C32  4881C4C0000000    add rsp,0xc0
00000C39  FF2425D8090241    jmp [0x410209d8]
00000C40  4881ECC0000000    sub rsp,0xc0
00000C47  4889442408        mov [rsp+0x8],rax
00000C4C  F20F116C2410      movsd qword [rsp+0x10],xmm5
00000C52  F20F11742418      movsd qword [rsp+0x18],xmm6
00000C58  F20F117C2420      movsd qword [rsp+0x20],xmm7
00000C5E  48BFD0EC481FFD7F  mov rdi,0x7ffd1f48ecd0
00000C68  48BE401DF7DA837F  mov rsi,0x7f83daf71d40
00000C72  48B85041AA786755  mov rax,0x556778aa4150
00000C7C  FFD0              call rax
00000C7E  48890425D0090241  mov [0x410209d0],rax
00000C86  488B442408        mov rax,[rsp+0x8]
00000C8B  F20F106C2410      movsd xmm5,qword [rsp+0x10]
00000C91  F20F10742418      movsd xmm6,qword [rsp+0x18]
00000C97  F20F107C2420      movsd xmm7,qword [rsp+0x20]
00000C9D  4881C4C0000000    add rsp,0xc0
00000CA4  FF2425D0090241    jmp [0x410209d0]
00000CAB  4881ECC0000000    sub rsp,0xc0
00000CB2  4889442408        mov [rsp+0x8],rax
00000CB7  F20F116C2410      movsd qword [rsp+0x10],xmm5
00000CBD  F20F11742418      movsd qword [rsp+0x18],xmm6
00000CC3  F20F117C2420      movsd qword [rsp+0x20],xmm7
00000CC9  48BFD0EC481FFD7F  mov rdi,0x7ffd1f48ecd0
00000CD3  48BE601DF7DA837F  mov rsi,0x7f83daf71d60
00000CDD  48B85041AA786755  mov rax,0x556778aa4150
00000CE7  FFD0              call rax
00000CE9  48890425C8090241  mov [0x410209c8],rax
00000CF1  488B442408        mov rax,[rsp+0x8]
00000CF6  F20F106C2410      movsd xmm5,qword [rsp+0x10]
00000CFC  F20F10742418      movsd xmm6,qword [rsp+0x18]
00000D02  F20F107C2420      movsd xmm7,qword [rsp+0x20]
00000D08  4881C4C0000000    add rsp,0xc0
00000D0F  FF2425C8090241    jmp [0x410209c8]
00000D16  CC                int3
00000D17  48B8C0D7A9786755  mov rax,0x556778a9d7c0
00000D21  FFD0              call rax
00000D23  BF0A000000        mov edi,0xa
00000D28  48B830D7A9786755  mov rax,0x556778a9d730
00000D32  FFD0              call rax
00000D34  48B8D0EC481FFD7F  mov rax,0x7ffd1f48ecd0
00000D3E  488B20            mov rsp,[rax]
00000D41  488B5C2408        mov rbx,[rsp+0x8]
00000D46  488B6C2410        mov rbp,[rsp+0x10]
00000D4B  4C8B642418        mov r12,[rsp+0x18]
00000D50  4C8B6C2420        mov r13,[rsp+0x20]
00000D55  4C8B742428        mov r14,[rsp+0x28]
00000D5A  4C8B7C2430        mov r15,[rsp+0x30]
00000D5F  4883C450          add rsp,byte +0x50
00000D63  C3                ret
