
--- ./0x155555519000.bin ---
00000000  4881EC08080000    sub rsp,0x808
00000007  488B442410        mov rax,[rsp+0x10]
0000000C  4883F802          cmp rax,byte +0x2
00000010  7241              jc 0x53
00000012  48B900D65B555555  mov rcx,0x5555555bd600
         -0000
0000001C  488B01            mov rax,[rcx]
0000001F  4885C0            test rax,rax
00000022  752D              jnz 0x51
00000024  48BF90C65B555555  mov rdi,0x5555555bc690
         -0000
0000002E  48BEE0D55B555555  mov rsi,0x5555555bd5e0
         -0000
00000038  48B8B60E5B555555  mov rax,0x5555555b0eb6
         -0000
00000042  FFD0              call rax
00000044  48B900D65B555555  mov rcx,0x5555555bd600
         -0000
0000004E  488901            mov [rcx],rax
00000051  FFE0              jmp rax
00000053  48B940D65B555555  mov rcx,0x5555555bd640
         -0000
0000005D  488B01            mov rax,[rcx]
00000060  4885C0            test rax,rax
00000063  752D              jnz 0x92
00000065  48BF90C65B555555  mov rdi,0x5555555bc690
         -0000
0000006F  48BE20D65B555555  mov rsi,0x5555555bd620
         -0000
00000079  48B8B60E5B555555  mov rax,0x5555555b0eb6
         -0000
00000083  FFD0              call rax
00000085  48B940D65B555555  mov rcx,0x5555555bd640
         -0000
0000008F  488901            mov [rcx],rax
00000092  FFE0              jmp rax



--- ./0x155555519094.bin ---
00000000  4881EC08080000    sub rsp,0x808
00000007  488B442410        mov rax,[rsp+0x10]
0000000C  4883F801          cmp rax,byte +0x1
00000010  7241              jc 0x53
00000012  48B900185C555555  mov rcx,0x5555555c1800
         -0000
0000001C  488B01            mov rax,[rcx]
0000001F  4885C0            test rax,rax
00000022  752D              jnz 0x51
00000024  48BF90C65B555555  mov rdi,0x5555555bc690
         -0000
0000002E  48BEE0175C555555  mov rsi,0x5555555c17e0
         -0000
00000038  48B8B60E5B555555  mov rax,0x5555555b0eb6
         -0000
00000042  FFD0              call rax
00000044  48B900185C555555  mov rcx,0x5555555c1800
         -0000
0000004E  488901            mov [rcx],rax
00000051  FFE0              jmp rax
00000053  48B940185C555555  mov rcx,0x5555555c1840
         -0000
0000005D  488B01            mov rax,[rcx]
00000060  4885C0            test rax,rax
00000063  752D              jnz 0x92
00000065  48BF90C65B555555  mov rdi,0x5555555bc690
         -0000
0000006F  48BE20185C555555  mov rsi,0x5555555c1820
         -0000
00000079  48B8B60E5B555555  mov rax,0x5555555b0eb6
         -0000
00000083  FFD0              call rax
00000085  48B940185C555555  mov rcx,0x5555555c1840
         -0000
0000008F  488901            mov [rcx],rax
00000092  FFE0              jmp rax



--- ./0x155555519128.bin ---
00000000  48B890C65B555555  mov rax,0x5555555bc690
         -0000
0000000A  488920            mov [rax],rsp
0000000D  4881EC08080000    sub rsp,0x808
00000014  48C7442408230000  mov qword [rsp+0x8],0x23
         -00
0000001D  488B442408        mov rax,[rsp+0x8]
00000022  48898424E8F7FFFF  mov [rsp-0x818],rax
0000002A  48B8009051555515  mov rax,0x155555519000
         -0000
00000034  FFD0              call rax
00000036  4889442408        mov [rsp+0x8],rax
0000003B  488B442408        mov rax,[rsp+0x8]
00000040  48898424E8F7FFFF  mov [rsp-0x818],rax
00000048  48B8949051555515  mov rax,0x155555519094
         -0000
00000052  FFD0              call rax
00000054  4889442408        mov [rsp+0x8],rax
00000059  31FF              xor edi,edi
0000005B  BF0A000000        mov edi,0xa
00000060  48B8CE0A5B555555  mov rax,0x5555555b0ace
         -0000
0000006A  FFD0              call rax
0000006C  48B890C65B555555  mov rax,0x5555555bc690
         -0000
00000076  488B20            mov rsp,[rax]
00000079  C3                ret



--- ./0x1555555191a2.bin ---
00000000  4881EC08080000    sub rsp,0x808
00000007  488B442410        mov rax,[rsp+0x10]
0000000C  B902000000        mov ecx,0x2
00000011  4829C8            sub rax,rcx
00000014  4889442408        mov [rsp+0x8],rax
00000019  488B442408        mov rax,[rsp+0x8]
0000001E  48898424E8F7FFFF  mov [rsp-0x818],rax
00000026  48B8009051555515  mov rax,0x155555519000
         -0000
00000030  FFD0              call rax
00000032  4889442408        mov [rsp+0x8],rax
00000037  488B442410        mov rax,[rsp+0x10]
0000003C  B901000000        mov ecx,0x1
00000041  4829C8            sub rax,rcx
00000044  4889442410        mov [rsp+0x10],rax
00000049  488B442410        mov rax,[rsp+0x10]
0000004E  48898424E8F7FFFF  mov [rsp-0x818],rax
00000056  48B8009051555515  mov rax,0x155555519000
         -0000
00000060  FFD0              call rax
00000062  4889442410        mov [rsp+0x10],rax
00000067  488B442408        mov rax,[rsp+0x8]
0000006C  488B4C2410        mov rcx,[rsp+0x10]
00000071  4801C8            add rax,rcx
00000074  4889442408        mov [rsp+0x8],rax
00000079  488B442408        mov rax,[rsp+0x8]
0000007E  4881C408080000    add rsp,0x808
00000085  C3                ret



--- ./0x155555519228.bin ---
00000000  4881EC08080000    sub rsp,0x808
00000007  488B442410        mov rax,[rsp+0x10]
0000000C  4881C408080000    add rsp,0x808
00000013  C3                ret


